target datalayout = "e-m:e-p270:32:32-p271:32:32-p272:64:64-i64:64-i128:128-f80:128-n8:16:32:64-S128"
target triple = "x86_64-pc-linux-gnu"

%struct.VP8TBuffer = type { ptr, ptr, ptr, i32, i32, i32 }
%struct.VP8Tokens = type { ptr }

; Function Attrs: nounwind uwtable
define hidden i32 @VP8EmitTokens(ptr noundef %0, ptr noundef %1, ptr noundef %2, i32 noundef %3) #0 {
  %5 = alloca ptr, align 8
  %6 = alloca ptr, align 8
  %7 = alloca ptr, align 8
  %8 = alloca i32, align 4
  %9 = alloca ptr, align 8
  %10 = alloca ptr, align 8
  %11 = alloca i32, align 4
  %12 = alloca i32, align 4
  %13 = alloca ptr, align 8
  %14 = alloca i16, align 2
  %15 = alloca i32, align 4
  store ptr %0, ptr %5, align 8, !tbaa !3
  store ptr %1, ptr %6, align 8, !tbaa !43
  store ptr %2, ptr %7, align 8, !tbaa !41
  store i32 %3, ptr %8, align 4, !tbaa !7
  call void @llvm.lifetime.start.p0(i64 8, ptr %9) #4
  %16 = load ptr, ptr %5, align 8, !tbaa !3
  %17 = getelementptr inbounds nuw %struct.VP8TBuffer, ptr %16, i32 0, i32 0
  %18 = load ptr, ptr %17, align 8, !tbaa !14
  store ptr %18, ptr %9, align 8, !tbaa !19
  br label %19

19:                                               ; preds = %84, %4
  %20 = load ptr, ptr %9, align 8, !tbaa !19
  %21 = icmp ne ptr %20, null
  br i1 %21, label %22, label %86

22:                                               ; preds = %19
  call void @llvm.lifetime.start.p0(i64 8, ptr %10) #4
  %23 = load ptr, ptr %9, align 8, !tbaa !19
  %24 = getelementptr inbounds nuw %struct.VP8Tokens, ptr %23, i32 0, i32 0
  %25 = load ptr, ptr %24, align 8, !tbaa !20
  store ptr %25, ptr %10, align 8, !tbaa !19
  call void @llvm.lifetime.start.p0(i64 4, ptr %11) #4
  %26 = load ptr, ptr %10, align 8, !tbaa !19
  %27 = icmp eq ptr %26, null
  br i1 %27, label %28, label %32

28:                                               ; preds = %22
  %29 = load ptr, ptr %5, align 8, !tbaa !3
  %30 = getelementptr inbounds nuw %struct.VP8TBuffer, ptr %29, i32 0, i32 3
  %31 = load i32, ptr %30, align 8, !tbaa !16
  br label %33

32:                                               ; preds = %22
  br label %33

33:                                               ; preds = %32, %28
  %34 = phi i32 [ %31, %28 ], [ 0, %32 ]
  store i32 %34, ptr %11, align 4, !tbaa !7
  call void @llvm.lifetime.start.p0(i64 4, ptr %12) #4
  %35 = load ptr, ptr %5, align 8, !tbaa !3
  %36 = getelementptr inbounds nuw %struct.VP8TBuffer, ptr %35, i32 0, i32 4
  %37 = load i32, ptr %36, align 4, !tbaa !17
  store i32 %37, ptr %12, align 4, !tbaa !7
  call void @llvm.lifetime.start.p0(i64 8, ptr %13) #4
  %38 = load ptr, ptr %9, align 8, !tbaa !19
  %39 = getelementptr inbounds %struct.VP8Tokens, ptr %38, i64 1
  store ptr %39, ptr %13, align 8, !tbaa !31
  br label %40

40:                                               ; preds = %78, %33
  %41 = load i32, ptr %12, align 4, !tbaa !7
  %42 = add nsw i32 %41, -1
  store i32 %42, ptr %12, align 4, !tbaa !7
  %43 = load i32, ptr %11, align 4, !tbaa !7
  %44 = icmp sgt i32 %41, %43
  br i1 %44, label %45, label %79

45:                                               ; preds = %40
  call void @llvm.lifetime.start.p0(i64 2, ptr %14) #4
  %46 = load ptr, ptr %13, align 8, !tbaa !31
  %47 = load i32, ptr %12, align 4, !tbaa !7
  %48 = sext i32 %47 to i64
  %49 = getelementptr inbounds i16, ptr %46, i64 %48
  %50 = load i16, ptr %49, align 2, !tbaa !37
  store i16 %50, ptr %14, align 2, !tbaa !37
  call void @llvm.lifetime.start.p0(i64 4, ptr %15) #4
  %51 = load i16, ptr %14, align 2, !tbaa !37
  %52 = zext i16 %51 to i32
  %53 = ashr i32 %52, 15
  %54 = and i32 %53, 1
  store i32 %54, ptr %15, align 4, !tbaa !7
  %55 = load i16, ptr %14, align 2, !tbaa !37
  %56 = zext i16 %55 to i32
  %57 = and i32 %56, 16384
  %58 = icmp ne i32 %57, 0
  br i1 %58, label %59, label %66

59:                                               ; preds = %45
  %60 = load ptr, ptr %6, align 8, !tbaa !43
  %61 = load i32, ptr %15, align 4, !tbaa !7
  %62 = load i16, ptr %14, align 2, !tbaa !37
  %63 = zext i16 %62 to i32
  %64 = and i32 %63, 255
  %65 = call i32 @VP8PutBit(ptr noundef %60, i32 noundef %61, i32 noundef %64)
  br label %78

66:                                               ; preds = %45
  %67 = load ptr, ptr %6, align 8, !tbaa !43
  %68 = load i32, ptr %15, align 4, !tbaa !7
  %69 = load ptr, ptr %7, align 8, !tbaa !41
  %70 = load i16, ptr %14, align 2, !tbaa !37
  %71 = zext i16 %70 to i32
  %72 = and i32 %71, 16383
  %73 = zext i32 %72 to i64
  %74 = getelementptr inbounds nuw i8, ptr %69, i64 %73
  %75 = load i8, ptr %74, align 1, !tbaa !39
  %76 = zext i8 %75 to i32
  %77 = call i32 @VP8PutBit(ptr noundef %67, i32 noundef %68, i32 noundef %76)
  br label %78

78:                                               ; preds = %66, %59
  call void @llvm.lifetime.end.p0(i64 4, ptr %15) #4
  call void @llvm.lifetime.end.p0(i64 2, ptr %14) #4
  br label %40, !llvm.loop !45

79:                                               ; preds = %40
  %80 = load i32, ptr %8, align 4, !tbaa !7
  %81 = icmp ne i32 %80, 0
  br i1 %81, label %82, label %84

82:                                               ; preds = %79
  %83 = load ptr, ptr %9, align 8, !tbaa !19
  call void @WebPSafeFree(ptr noundef %83)
  br label %84

84:                                               ; preds = %82, %79
  %85 = load ptr, ptr %10, align 8, !tbaa !19
  store ptr %85, ptr %9, align 8, !tbaa !19
  call void @llvm.lifetime.end.p0(i64 8, ptr %13) #4
  call void @llvm.lifetime.end.p0(i64 4, ptr %12) #4
  call void @llvm.lifetime.end.p0(i64 4, ptr %11) #4
  call void @llvm.lifetime.end.p0(i64 8, ptr %10) #4
  br label %19, !llvm.loop !46

86:                                               ; preds = %19
  %87 = load i32, ptr %8, align 4, !tbaa !7
  %88 = icmp ne i32 %87, 0
  br i1 %88, label %89, label %92

89:                                               ; preds = %86
  %90 = load ptr, ptr %5, align 8, !tbaa !3
  %91 = getelementptr inbounds nuw %struct.VP8TBuffer, ptr %90, i32 0, i32 0
  store ptr null, ptr %91, align 8, !tbaa !14
  br label %92

92:                                               ; preds = %89, %86
  call void @llvm.lifetime.end.p0(i64 8, ptr %9) #4
  ret i32 1
}