; Function Attrs: nounwind uwtable
define hidden noundef i32 @VP8EmitTokens(ptr noundef captures(none) %0, ptr noundef %1, ptr noundef readonly captures(none) %2, i32 noundef %3) local_unnamed_addr #1 {
  %5 = load ptr, ptr %0, align 8, !tbaa !12
  %.not28 = icmp eq ptr %5, null
  br i1 %.not28, label %._crit_edge32, label %.lr.ph31

.lr.ph31:                                         ; preds = %4
  %6 = getelementptr inbounds nuw i8, ptr %0, i64 24
  %7 = getelementptr inbounds nuw i8, ptr %0, i64 28
  %.not26 = icmp eq i32 %3, 0
  br i1 %.not26, label %.lr.ph31.split.us, label %.lr.ph31.split

.lr.ph31.split.us:                                ; preds = %.lr.ph31, %._crit_edge.us
  %.029.us = phi ptr [ %8, %._crit_edge.us ], [ %5, %.lr.ph31 ]
  %8 = load ptr, ptr %.029.us, align 8, !tbaa !17
  %9 = icmp eq ptr %8, null
  br i1 %9, label %10, label %12

10:                                               ; preds = %.lr.ph31.split.us
  %11 = load i32, ptr %6, align 8, !tbaa !14
  br label %12

12:                                               ; preds = %10, %.lr.ph31.split.us
  %13 = phi i32 [ %11, %10 ], [ 0, %.lr.ph31.split.us ]
  %14 = load i32, ptr %7, align 4, !tbaa !15
  %15 = getelementptr inbounds nuw i8, ptr %.029.us, i64 8
  %16 = icmp sgt i32 %14, %13
  br i1 %16, label %.lr.ph.us.preheader, label %._crit_edge.us

.lr.ph.us.preheader:                              ; preds = %12
  %17 = sext i32 %14 to i64
  %18 = sext i32 %13 to i64
  br label %.lr.ph.us

._crit_edge.us:                                   ; preds = %32, %12
  br i1 %9, label %._crit_edge32, label %.lr.ph31.split.us, !llvm.loop !37

.lr.ph.us:                                        ; preds = %.lr.ph.us.preheader, %32
  %indvars.iv36 = phi i64 [ %17, %.lr.ph.us.preheader ], [ %indvars.iv.next37, %32 ]
  %indvars.iv.next37 = add nsw i64 %indvars.iv36, -1
  %19 = getelementptr inbounds i16, ptr %15, i64 %indvars.iv.next37
  %20 = load i16, ptr %19, align 2, !tbaa !31
  %21 = zext i16 %20 to i32
  %22 = lshr i32 %21, 15
  %23 = and i32 %21, 16384
  %.not27.us = icmp eq i32 %23, 0
  br i1 %.not27.us, label %26, label %24

24:                                               ; preds = %.lr.ph.us
  %25 = and i32 %21, 255
  br label %32

26:                                               ; preds = %.lr.ph.us
  %27 = and i32 %21, 16383
  %28 = zext nneg i32 %27 to i64
  %29 = getelementptr inbounds nuw i8, ptr %2, i64 %28
  %30 = load i8, ptr %29, align 1, !tbaa !34
  %31 = zext i8 %30 to i32
  br label %32

32:                                               ; preds = %26, %24
  %.sink = phi i32 [ %31, %26 ], [ %25, %24 ]
  %33 = tail call i32 @VP8PutBit(ptr noundef %1, i32 noundef %22, i32 noundef %.sink) #5
  %34 = icmp sgt i64 %indvars.iv.next37, %18
  br i1 %34, label %.lr.ph.us, label %._crit_edge.us, !llvm.loop !38

.lr.ph31.split:                                   ; preds = %.lr.ph31, %._crit_edge
  %.029 = phi ptr [ %35, %._crit_edge ], [ %5, %.lr.ph31 ]
  %35 = load ptr, ptr %.029, align 8, !tbaa !17
  %36 = icmp eq ptr %35, null
  br i1 %36, label %37, label %39

37:                                               ; preds = %.lr.ph31.split
  %38 = load i32, ptr %6, align 8, !tbaa !14
  br label %39

39:                                               ; preds = %.lr.ph31.split, %37
  %40 = phi i32 [ %38, %37 ], [ 0, %.lr.ph31.split ]
  %41 = load i32, ptr %7, align 4, !tbaa !15
  %42 = getelementptr inbounds nuw i8, ptr %.029, i64 8
  %43 = icmp sgt i32 %41, %40
  br i1 %43, label %.lr.ph.preheader, label %._crit_edge

.lr.ph.preheader:                                 ; preds = %39
  %44 = sext i32 %41 to i64
  %45 = sext i32 %40 to i64
  br label %.lr.ph

.lr.ph:                                           ; preds = %.lr.ph.preheader, %59
  %indvars.iv = phi i64 [ %44, %.lr.ph.preheader ], [ %indvars.iv.next, %59 ]
  %indvars.iv.next = add nsw i64 %indvars.iv, -1
  %46 = getelementptr inbounds i16, ptr %42, i64 %indvars.iv.next
  %47 = load i16, ptr %46, align 2, !tbaa !31
  %48 = zext i16 %47 to i32
  %49 = lshr i32 %48, 15
  %50 = and i32 %48, 16384
  %.not27 = icmp eq i32 %50, 0
  br i1 %.not27, label %53, label %51

51:                                               ; preds = %.lr.ph
  %52 = and i32 %48, 255
  br label %59

53:                                               ; preds = %.lr.ph
  %54 = and i32 %48, 16383
  %55 = zext nneg i32 %54 to i64
  %56 = getelementptr inbounds nuw i8, ptr %2, i64 %55
  %57 = load i8, ptr %56, align 1, !tbaa !34
  %58 = zext i8 %57 to i32
  br label %59

59:                                               ; preds = %53, %51
  %.sink40 = phi i32 [ %58, %53 ], [ %52, %51 ]
  %60 = tail call i32 @VP8PutBit(ptr noundef %1, i32 noundef %49, i32 noundef %.sink40) #5
  %61 = icmp sgt i64 %indvars.iv.next, %45
  br i1 %61, label %.lr.ph, label %._crit_edge, !llvm.loop !38

._crit_edge:                                      ; preds = %59, %39
  tail call void @WebPSafeFree(ptr noundef nonnull %.029) #5
  br i1 %36, label %._crit_edge32, label %.lr.ph31.split, !llvm.loop !37

._crit_edge32:                                    ; preds = %._crit_edge, %._crit_edge.us, %4
  %.not25 = icmp eq i32 %3, 0
  br i1 %.not25, label %63, label %62

62:                                               ; preds = %._crit_edge32
  store ptr null, ptr %0, align 8, !tbaa !12
  br label %63

63:                                               ; preds = %62, %._crit_edge32
  ret i32 1
}